; Function Attrs: nounwind uwtable
define range(i32 0, 2) i32 @Ssw_ManUniqueAddConstraint(ptr noundef captures(none) %0, ptr noundef readonly captures(none) %1, i32 noundef %2, i32 noundef %3) local_unnamed_addr #0 {
  %5 = getelementptr inbounds nuw i8, ptr %0, i64 24
  %6 = load ptr, ptr %5, align 8
  %7 = getelementptr i8, ptr %6, i64 48
  %.val34 = load ptr, ptr %7, align 8
  %8 = ptrtoint ptr %.val34 to i64
  %9 = xor i64 %8, 1
  %10 = getelementptr i8, ptr %1, i64 4
  %.val3338 = load i32, ptr %10, align 4
  %11 = icmp sgt i32 %.val3338, 0
  br i1 %11, label %.lr.ph, label %.critedge

.lr.ph:                                           ; preds = %4
  %12 = inttoptr i64 %9 to ptr
  %13 = getelementptr i8, ptr %1, i64 8
  %14 = getelementptr i8, ptr %0, i64 8
  %15 = getelementptr i8, ptr %0, i64 32
  br label %16

16:                                               ; preds = %.lr.ph, %16
  %indvars.iv = phi i64 [ 0, %.lr.ph ], [ %indvars.iv.next, %16 ]
  %.02639 = phi ptr [ %12, %.lr.ph ], [ %32, %16 ]
  %.val = load ptr, ptr %13, align 8
  %17 = getelementptr inbounds nuw ptr, ptr %.val, i64 %indvars.iv
  %18 = load ptr, ptr %17, align 8
  %.val30 = load i32, ptr %14, align 8
  %.val31 = load ptr, ptr %15, align 8
  %19 = getelementptr i8, ptr %18, i64 36
  %.val32 = load i32, ptr %19, align 4
  %20 = mul nsw i32 %.val32, %.val30
  %21 = add nsw i32 %20, %2
  %22 = sext i32 %21 to i64
  %23 = getelementptr inbounds ptr, ptr %.val31, i64 %22
  %24 = load ptr, ptr %23, align 8
  %25 = add nsw i32 %20, %3
  %26 = sext i32 %25 to i64
  %27 = getelementptr inbounds ptr, ptr %.val31, i64 %26
  %28 = load ptr, ptr %27, align 8
  %29 = load ptr, ptr %5, align 8
  %30 = tail call ptr @Aig_Exor(ptr noundef %29, ptr noundef %24, ptr noundef %28) #10
  %31 = load ptr, ptr %5, align 8
  %32 = tail call ptr @Aig_Or(ptr noundef %31, ptr noundef %.02639, ptr noundef %30) #10
  %indvars.iv.next = add nuw nsw i64 %indvars.iv, 1
  %.val33 = load i32, ptr %10, align 4
  %33 = sext i32 %.val33 to i64
  %34 = icmp slt i64 %indvars.iv.next, %33
  br i1 %34, label %16, label %.critedge.loopexit, !llvm.loop !8

.critedge.loopexit:                               ; preds = %16
  %35 = ptrtoint ptr %32 to i64
  br label %.critedge

.critedge:                                        ; preds = %.critedge.loopexit, %4
  %.026.lcssa = phi i64 [ %9, %4 ], [ %35, %.critedge.loopexit ]
  %36 = and i64 %.026.lcssa, -2
  %37 = inttoptr i64 %36 to ptr
  %38 = getelementptr i8, ptr %37, i64 24
  %.val35 = load i64, ptr %38, align 8
  %39 = and i64 %.val35, 7
  %.not = icmp eq i64 %39, 1
  br i1 %.not, label %91, label %40

40:                                               ; preds = %.critedge
  %41 = getelementptr inbounds nuw i8, ptr %0, i64 64
  %42 = load ptr, ptr %41, align 8
  tail call void @Ssw_CnfNodeAddToSolver(ptr noundef %42, ptr noundef nonnull %37) #10
  %43 = load ptr, ptr %41, align 8
  %44 = getelementptr i8, ptr %43, i64 32
  %.val36 = load ptr, ptr %44, align 8
  %45 = getelementptr i8, ptr %37, i64 36
  %.val37 = load i32, ptr %45, align 4
  %46 = add nsw i32 %.val37, 1
  %47 = getelementptr inbounds nuw i8, ptr %.val36, i64 4
  %48 = load i32, ptr %47, align 4
  %.not.i.not.i.i = icmp slt i32 %.val37, %48
  br i1 %.not.i.not.i.i, label %Ssw_ObjSatNum.exit, label %49

49:                                               ; preds = %40
  %50 = load i32, ptr %.val36, align 8
  %51 = shl nsw i32 %50, 1
  %.not.i.i = icmp slt i32 %.val37, %51
  %.not.i.i.not.i.i = icmp sgt i32 %50, %.val37
  br i1 %.not.i.i, label %64, label %52

52:                                               ; preds = %49
  br i1 %.not.i.i.not.i.i, label %Vec_IntGrow.exit.i.i.i, label %53

53:                                               ; preds = %52
  %54 = getelementptr inbounds nuw i8, ptr %.val36, i64 8
  %55 = load ptr, ptr %54, align 8
  %.not9.i.i.i.i = icmp eq ptr %55, null
  %56 = sext i32 %46 to i64
  %57 = shl nsw i64 %56, 2
  br i1 %.not9.i.i.i.i, label %60, label %58

58:                                               ; preds = %53
  %59 = tail call ptr @realloc(ptr noundef nonnull %55, i64 noundef %57) #9
  br label %62

60:                                               ; preds = %53
  %61 = tail call noalias ptr @malloc(i64 noundef %57) #8
  br label %62

62:                                               ; preds = %60, %58
  %63 = phi ptr [ %59, %58 ], [ %61, %60 ]
  store ptr %63, ptr %54, align 8
  br label %Vec_IntGrow.exit.sink.split.i.i.i

64:                                               ; preds = %49
  br i1 %.not.i.i.not.i.i, label %Vec_IntGrow.exit.i.i.i, label %65

65:                                               ; preds = %64
  %66 = getelementptr inbounds nuw i8, ptr %.val36, i64 8
  %67 = load ptr, ptr %66, align 8
  %.not9.i21.i.i.i = icmp eq ptr %67, null
  %68 = sext i32 %51 to i64
  %69 = shl nsw i64 %68, 2
  br i1 %.not9.i21.i.i.i, label %72, label %70

70:                                               ; preds = %65
  %71 = tail call ptr @realloc(ptr noundef nonnull %67, i64 noundef %69) #9
  br label %74

72:                                               ; preds = %65
  %73 = tail call noalias ptr @malloc(i64 noundef %69) #8
  br label %74

74:                                               ; preds = %72, %70
  %75 = phi ptr [ %71, %70 ], [ %73, %72 ]
  store ptr %75, ptr %66, align 8
  br label %Vec_IntGrow.exit.sink.split.i.i.i

Vec_IntGrow.exit.sink.split.i.i.i:                ; preds = %74, %62
  %.sink.i.i.i = phi i32 [ %51, %74 ], [ %46, %62 ]
  store i32 %.sink.i.i.i, ptr %.val36, align 8
  %.pre.i.i = load i32, ptr %47, align 4
  br label %Vec_IntGrow.exit.i.i.i

Vec_IntGrow.exit.i.i.i:                           ; preds = %Vec_IntGrow.exit.sink.split.i.i.i, %64, %52
  %76 = phi i32 [ %.pre.i.i, %Vec_IntGrow.exit.sink.split.i.i.i ], [ %48, %64 ], [ %48, %52 ]
  %.not3.i.i = icmp sgt i32 %76, %.val37
  br i1 %.not3.i.i, label %._crit_edge.i.i.i, label %.lr.ph.i.i.i

.lr.ph.i.i.i:                                     ; preds = %Vec_IntGrow.exit.i.i.i
  %77 = getelementptr inbounds nuw i8, ptr %.val36, i64 8
  %78 = sext i32 %76 to i64
  %wide.trip.count.i.i.i = sext i32 %46 to i64
  br label %79

79:                                               ; preds = %79, %.lr.ph.i.i.i
  %indvars.iv.i.i.i = phi i64 [ %78, %.lr.ph.i.i.i ], [ %indvars.iv.next.i.i.i, %79 ]
  %80 = load ptr, ptr %77, align 8
  %81 = getelementptr inbounds i32, ptr %80, i64 %indvars.iv.i.i.i
  store i32 0, ptr %81, align 4
  %indvars.iv.next.i.i.i = add nsw i64 %indvars.iv.i.i.i, 1
  %exitcond.not.i.i.i = icmp eq i64 %indvars.iv.next.i.i.i, %wide.trip.count.i.i.i
  br i1 %exitcond.not.i.i.i, label %._crit_edge.i.i.i, label %79, !llvm.loop !9

._crit_edge.i.i.i:                                ; preds = %79, %Vec_IntGrow.exit.i.i.i
  store i32 %46, ptr %47, align 4
  br label %Ssw_ObjSatNum.exit

Ssw_ObjSatNum.exit:                               ; preds = %40, %._crit_edge.i.i.i
  %82 = getelementptr i8, ptr %.val36, i64 8
  %.val.i.i = load ptr, ptr %82, align 8
  %83 = sext i32 %.val37 to i64
  %84 = getelementptr inbounds i32, ptr %.val.i.i, i64 %83
  %85 = load i32, ptr %84, align 4
  %86 = trunc i64 %.026.lcssa to i32
  %87 = and i32 %86, 1
  %88 = shl nsw i32 %85, 1
  %89 = or disjoint i32 %88, %87
  %90 = getelementptr inbounds nuw i8, ptr %0, i64 136
  store i32 %89, ptr %90, align 8
  br label %91

91:                                               ; preds = %.critedge, %Ssw_ObjSatNum.exit
  %.0 = phi i32 [ 1, %Ssw_ObjSatNum.exit ], [ 0, %.critedge ]
  ret i32 %.0
}